target datalayout = "e-m:e-p270:32:32-p271:32:32-p272:64:64-i64:64-i128:128-f80:128-n8:16:32:64-S128"
target triple = "x86_64-pc-linux-gnu"

%"class.llvm::codeview::ClassRecord" = type { %"class.llvm::codeview::TagRecord", %"class.llvm::codeview::TypeIndex", %"class.llvm::codeview::TypeIndex", i64 }
%"class.llvm::codeview::TagRecord" = type { %"class.llvm::codeview::TypeRecord", i16, i16, %"class.llvm::codeview::TypeIndex", %"class.llvm::StringRef", %"class.llvm::StringRef" }
%"class.llvm::codeview::TypeRecord" = type { i16 }
%"class.llvm::StringRef" = type { ptr, i64 }
%"class.llvm::codeview::TypeIndex" = type { %"struct.llvm::support::detail::packed_endian_specific_integral" }
%"struct.llvm::support::detail::packed_endian_specific_integral" = type { %struct.anon }
%struct.anon = type { [4 x i8] }
%"class.llvm::pdb::NativeTypeUDT" = type <{ %"class.llvm::pdb::NativeRawSymbol", %"class.llvm::codeview::TypeIndex", [4 x i8], %"class.std::optional", %"class.std::optional.0", ptr, ptr, %"class.std::optional.8", [6 x i8] }>
%"class.llvm::pdb::NativeRawSymbol" = type { %"class.llvm::pdb::IPDBRawSymbol", ptr, i32, i32 }
%"class.llvm::pdb::IPDBRawSymbol" = type { ptr }
%"class.std::optional" = type { %"struct.std::_Optional_base" }
%"struct.std::_Optional_base" = type { %"struct.std::_Optional_payload" }
%"struct.std::_Optional_payload" = type { %"struct.std::_Optional_payload_base.base", [7 x i8] }
%"struct.std::_Optional_payload_base.base" = type <{ %"union.std::_Optional_payload_base<llvm::codeview::ClassRecord>::_Storage", i8 }>
%"union.std::_Optional_payload_base<llvm::codeview::ClassRecord>::_Storage" = type { %"class.llvm::codeview::ClassRecord" }
%"class.std::optional.0" = type { %"struct.std::_Optional_base.1" }
%"struct.std::_Optional_base.1" = type { %"struct.std::_Optional_payload.3" }
%"struct.std::_Optional_payload.3" = type { %"struct.std::_Optional_payload_base.base.5", [7 x i8] }
%"struct.std::_Optional_payload_base.base.5" = type <{ %"union.std::_Optional_payload_base<llvm::codeview::UnionRecord>::_Storage", i8 }>
%"union.std::_Optional_payload_base<llvm::codeview::UnionRecord>::_Storage" = type { %"struct.llvm::codeview::UnionRecord" }
%"struct.llvm::codeview::UnionRecord" = type { %"class.llvm::codeview::TagRecord", i64 }
%"class.std::optional.8" = type { %"struct.std::_Optional_base.9" }
%"struct.std::_Optional_base.9" = type { %"struct.std::_Optional_payload.11" }
%"struct.std::_Optional_payload.11" = type { %"struct.std::_Optional_payload_base.base.13", i8 }
%"struct.std::_Optional_payload_base.base.13" = type <{ %"union.std::_Optional_payload_base<llvm::codeview::ModifierRecord>::_Storage", i8 }>
%"union.std::_Optional_payload_base<llvm::codeview::ModifierRecord>::_Storage" = type { %"class.llvm::codeview::ModifierRecord" }
%"class.llvm::codeview::ModifierRecord" = type { %"class.llvm::codeview::TypeRecord", %"class.llvm::codeview::TypeIndex", i16 }

; Function Attrs: mustprogress nounwind uwtable
define linkonce_odr hidden noundef zeroext i16 @_ZN4llvm13to_underlyingINS_8codeview12ClassOptionsEEENSt15underlying_typeIT_E4typeES4_(i16 noundef zeroext %0) #0 comdat {
  %2 = alloca i16, align 2
  store i16 %0, ptr %2, align 2
  %3 = load i16, ptr %2, align 2
  ret i16 %3
}

; Function Attrs: mustprogress nounwind uwtable
define linkonce_odr hidden noundef zeroext i16 @_ZN4llvm8codeviewanENS0_12ClassOptionsES1_(i16 noundef zeroext %0, i16 noundef zeroext %1) #0 comdat {
  %3 = alloca i16, align 2
  %4 = alloca i16, align 2
  store i16 %0, ptr %3, align 2
  store i16 %1, ptr %4, align 2
  %5 = load i16, ptr %3, align 2
  %6 = call noundef zeroext i16 @_ZN4llvm13to_underlyingINS_8codeview12ClassOptionsEEENSt15underlying_typeIT_E4typeES4_(i16 noundef zeroext %5)
  %7 = zext i16 %6 to i32
  %8 = load i16, ptr %4, align 2
  %9 = call noundef zeroext i16 @_ZN4llvm13to_underlyingINS_8codeview12ClassOptionsEEENSt15underlying_typeIT_E4typeES4_(i16 noundef zeroext %8)
  %10 = zext i16 %9 to i32
  %11 = and i32 %7, %10
  %12 = trunc i32 %11 to i16
  ret i16 %12
}

; Function Attrs: mustprogress nounwind uwtable
define dso_local noundef zeroext i1 @_ZNK4llvm3pdb13NativeTypeUDT11isIntrinsicEv(ptr noundef nonnull align 8 dereferenceable(194) %0) unnamed_addr #0 align 2 {
  %2 = alloca i1, align 1
  %3 = alloca ptr, align 8
  store ptr %0, ptr %3, align 8
  %4 = load ptr, ptr %3, align 8
  %5 = getelementptr inbounds nuw %"class.llvm::pdb::NativeTypeUDT", ptr %4, i32 0, i32 5
  %6 = load ptr, ptr %5, align 8
  %7 = icmp ne ptr %6, null
  br i1 %7, label %8, label %15

8:                                                ; preds = %1
  %9 = getelementptr inbounds nuw %"class.llvm::pdb::NativeTypeUDT", ptr %4, i32 0, i32 5
  %10 = load ptr, ptr %9, align 8
  %11 = load ptr, ptr %10, align 8
  %12 = getelementptr inbounds ptr, ptr %11, i64 143
  %13 = load ptr, ptr %12, align 8
  %14 = call noundef zeroext i1 %13(ptr noundef nonnull align 8 dereferenceable(194) %10)
  store i1 %14, ptr %2, align 1
  br label %22

15:                                               ; preds = %1
  %16 = getelementptr inbounds nuw %"class.llvm::pdb::NativeTypeUDT", ptr %4, i32 0, i32 6
  %17 = load ptr, ptr %16, align 8
  %18 = getelementptr inbounds nuw %"class.llvm::codeview::TagRecord", ptr %17, i32 0, i32 2
  %19 = load i16, ptr %18, align 4
  %20 = call noundef zeroext i16 @_ZN4llvm8codeviewanENS0_12ClassOptionsES1_(i16 noundef zeroext %19, i16 noundef zeroext 8192)
  %21 = icmp ne i16 %20, 0
  store i1 %21, ptr %2, align 1
  br label %22

22:                                               ; preds = %15, %8
  %23 = load i1, ptr %2, align 1
  ret i1 %23
}