; Function Attrs: mustprogress nounwind uwtable
define dso_local noundef zeroext i1 @_ZNK4llvm3pdb13NativeTypeUDT11isIntrinsicEv(ptr nocapture noundef nonnull readonly align 8 dereferenceable(194) %0) unnamed_addr #0 align 2 {
  %2 = getelementptr inbounds nuw i8, ptr %0, i64 168
  %3 = load ptr, ptr %2, align 8
  %.not = icmp eq ptr %3, null
  br i1 %.not, label %9, label %4

4:                                                ; preds = %1
  %5 = load ptr, ptr %3, align 8
  %6 = getelementptr inbounds i8, ptr %5, i64 1144
  %7 = load ptr, ptr %6, align 8
  %8 = tail call noundef zeroext i1 %7(ptr noundef nonnull align 8 dereferenceable(194) %3) #9
  br label %16

9:                                                ; preds = %1
  %10 = getelementptr inbounds nuw i8, ptr %0, i64 176
  %11 = load ptr, ptr %10, align 8
  %12 = getelementptr inbounds nuw i8, ptr %11, i64 4
  %13 = load i16, ptr %12, align 4
  %14 = and i16 %13, 8192
  %15 = icmp ne i16 %14, 0
  br label %16

16:                                               ; preds = %9, %4
  %.0 = phi i1 [ %8, %4 ], [ %15, %9 ]
  ret i1 %.0
}